; Function Attrs: mustprogress nounwind uwtable
define dso_local void @_ZN4node11UDPWrapBase10AddMethodsEPNS_11EnvironmentEN2v85LocalINS3_16FunctionTemplateEEE(ptr nocapture noundef readonly %env, ptr %t.coerce) local_unnamed_addr #3 align 2 {
entry:
  %isolate_.i = getelementptr inbounds i8, ptr %env, i64 88
  %0 = load ptr, ptr %isolate_.i, align 8
  tail call void @_ZN4node14SetProtoMethodEPN2v87IsolateENS0_5LocalINS0_16FunctionTemplateEEESt17basic_string_viewIcSt11char_traitsIcEEPFvRKNS0_20FunctionCallbackInfoINS0_5ValueEEEE(ptr noundef %0, ptr %t.coerce, i64 9, ptr nonnull @.str.9, ptr noundef nonnull @_ZN4node11UDPWrapBase9RecvStartERKN2v820FunctionCallbackInfoINS1_5ValueEEE) #19
  %1 = load ptr, ptr %isolate_.i, align 8
  tail call void @_ZN4node14SetProtoMethodEPN2v87IsolateENS0_5LocalINS0_16FunctionTemplateEEESt17basic_string_viewIcSt11char_traitsIcEEPFvRKNS0_20FunctionCallbackInfoINS0_5ValueEEEE(ptr noundef %1, ptr %t.coerce, i64 8, ptr nonnull @.str.10, ptr noundef nonnull @_ZN4node11UDPWrapBase8RecvStopERKN2v820FunctionCallbackInfoINS1_5ValueEEE) #19
  ret void
}